; Function Attrs: mustprogress nofree norecurse nosync nounwind willreturn memory(argmem: read) uwtable
define hidden noundef zeroext i1 @_ZN11realclosure7rank_ltEPNS_9extensionES1_(ptr noundef readonly captures(none) %0, ptr noundef readonly captures(none) %1) local_unnamed_addr #4 {
  %3 = getelementptr inbounds nuw i8, ptr %0, i64 4
  %4 = load i32, ptr %3, align 4
  %5 = and i32 %4, 3
  %6 = getelementptr inbounds nuw i8, ptr %1, i64 4
  %7 = load i32, ptr %6, align 4
  %8 = and i32 %7, 3
  %9 = icmp samesign ult i32 %5, %8
  br i1 %9, label %16, label %10

10:                                               ; preds = %2
  %11 = icmp eq i32 %5, %8
  br i1 %11, label %12, label %16

12:                                               ; preds = %10
  %13 = lshr i32 %4, 2
  %14 = lshr i32 %7, 2
  %15 = icmp samesign ult i32 %13, %14
  br label %16

16:                                               ; preds = %10, %12, %2
  %17 = phi i1 [ true, %2 ], [ false, %10 ], [ %15, %12 ]
  ret i1 %17
}